; Function Attrs: mustprogress nofree norecurse nosync nounwind willreturn memory(write, argmem: readwrite, inaccessiblemem: none) uwtable
define void @_ZN7jsonnet8internal30remove_extra_trailing_newlinesERSt6vectorINS0_13FodderElementESaIS2_EE(ptr noundef nonnull readonly align 8 captures(none) dereferenceable(24) %0) local_unnamed_addr #8 {
  %2 = load ptr, ptr %0, align 8, !tbaa !15
  %3 = getelementptr inbounds nuw i8, ptr %0, i64 8
  %4 = load ptr, ptr %3, align 8, !tbaa !15
  %5 = icmp eq ptr %2, %4
  br i1 %5, label %8, label %6

6:                                                ; preds = %1
  %7 = getelementptr inbounds i8, ptr %4, i64 -36
  store i32 0, ptr %7, align 4, !tbaa !48
  br label %8

8:                                                ; preds = %6, %1
  ret void
}